Certificate:
    Data:
        Version: 3 (0x2)
        Serial Number:
            b4:39:85:e9:6a:a3:ec:b0
    Signature Algorithm: sha256WithRSAEncryption
        Issuer: C=CH, ST=Neuchatel, O=Red Hat, OU=jboss, CN=Jean-Frederic Clere/emailAddress=jclere@redhat.com
        Validity
            Not Before: May  4 13:00:03 2017 GMT
            Not After : May  4 13:00:03 2018 GMT
        Subject: C=CH, ST=Neuchatel, L=Neuchatel, O=tests, CN=jfcbox.test.org
        Subject Public Key Info:
            Public Key Algorithm: rsaEncryption
                Public-Key: (2048 bit)
                Modulus:
                    00:b3:d7:0a:a4:c9:85:3b:51:e0:28:b7:98:00:54:
                    e9:db:a4:7b:94:7a:c3:7f:ff:ef:80:44:99:4d:2d:
                    88:5c:47:dc:92:4c:4f:9a:d7:79:e5:02:bb:17:2f:
                    e0:65:f9:fe:f8:5a:ce:aa:f4:d5:7e:9b:4d:7d:34:
                    01:0f:25:f1:7d:72:8a:cb:c1:a2:51:99:ae:e3:34:
                    c6:23:3d:f1:d6:77:42:7a:92:c6:03:7d:6e:fd:82:
                    c5:00:61:42:c9:b1:d1:d5:ad:7f:65:1c:b1:f9:c2:
                    7d:20:68:19:e3:fc:47:4c:c3:ed:70:1e:99:e2:31:
                    f7:b6:95:7c:ce:96:05:d7:fd:b7:8b:b0:4d:95:4f:
                    d0:57:05:de:d3:ec:1c:f7:69:09:e7:2f:5e:11:ec:
                    37:c6:ac:3e:9d:46:e2:43:7f:af:a9:3c:b1:f6:16:
                    c9:74:d5:9f:24:c1:b7:fd:7a:e3:fb:e2:ac:ea:57:
                    7e:ba:3e:c7:75:21:76:7f:0f:4b:1e:4c:45:32:66:
                    be:4b:f2:2a:6d:2d:c2:f6:2b:c2:dc:62:54:89:95:
                    93:86:77:65:2e:9b:80:43:47:c7:9d:4e:e2:14:72:
                    54:75:45:d5:c1:79:9e:36:46:4b:95:da:e9:85:97:
                    0d:2d:38:ab:d2:dd:6d:2c:03:b6:de:bb:3e:4e:80:
                    93:f5
                Exponent: 65537 (0x10001)
        X509v3 extensions:
            X509v3 Basic Constraints: 
                CA:FALSE
            Netscape Comment: 
                OpenSSL Generated Certificate
            X509v3 Subject Key Identifier: 
                33:DA:7C:A1:C3:1A:C9:04:1F:0B:29:FF:10:17:03:F7:75:8A:90:D7
            X509v3 Authority Key Identifier: 
                keyid:60:DC:E0:5F:A3:AE:A3:2D:63:26:0C:88:C6:86:9B:F4:7D:AB:C5:85

    Signature Algorithm: sha256WithRSAEncryption
         15:52:50:bb:ab:82:88:b9:62:75:03:6e:d9:00:0c:c9:90:de:
         72:52:5a:32:32:79:d6:89:58:44:24:d5:35:96:46:0f:c0:19:
         bd:e8:61:5a:61:4b:8b:10:81:18:3c:01:63:7b:78:98:e4:56:
         6d:ce:35:de:ec:76:37:e5:a1:96:29:3b:49:1f:3e:85:4f:22:
         98:6c:ce:81:dd:53:df:85:d2:f9:0f:1d:5c:bc:7b:0d:9e:a0:
         e1:1b:7e:2c:a8:cd:2e:a9:f0:56:d7:5c:d2:0a:4d:13:9e:c0:
         b8:04:cf:67:04:c8:12:7d:f9:40:9c:4c:3c:2f:23:e9:2d:f9:
         0f:1f:f6:f1:18:9e:f7:32:c1:9a:e3:52:f8:22:58:db:f3:08:
         53:41:ca:07:f0:8b:d0:02:d2:a9:9b:70:2d:bc:65:3c:1e:c3:
         e7:90:73:0d:7e:c8:06:ef:04:7c:a4:2a:ae:b1:45:9a:fc:59:
         5c:bb:52:5b:9d:09:6d:66:0d:8c:d8:ec:bc:94:42:4d:14:06:
         9d:9b:f6:aa:dc:6a:66:ed:ac:1e:de:64:48:90:26:b2:2f:ce:
         69:1d:15:e4:46:05:5c:bd:be:6a:93:05:2c:c6:bb:3b:6a:a5:
         53:f0:8e:3c:85:58:92:53:f3:ae:c7:63:e5:82:56:65:f3:1a:
         67:97:68:7c
-----BEGIN CERTIFICATE-----
MIID4TCCAsmgAwIBAgIJALQ5helqo+ywMA0GCSqGSIb3DQEBCwUAMIGDMQswCQYD
VQQGEwJDSDESMBAGA1UECAwJTmV1Y2hhdGVsMRAwDgYDVQQKDAdSZWQgSGF0MQ4w
DAYDVQQLDAVqYm9zczEcMBoGA1UEAwwTSmVhbi1GcmVkZXJpYyBDbGVyZTEgMB4G
CSqGSIb3DQEJARYRamNsZXJlQHJlZGhhdC5jb20wHhcNMTcwNTA0MTMwMDAzWhcN
MTgwNTA0MTMwMDAzWjBfMQswCQYDVQQGEwJDSDESMBAGA1UECAwJTmV1Y2hhdGVs
MRIwEAYDVQQHDAlOZXVjaGF0ZWwxDjAMBgNVBAoMBXRlc3RzMRgwFgYDVQQDDA9q
ZmNib3gudGVzdC5vcmcwggEiMA0GCSqGSIb3DQEBAQUAA4IBDwAwggEKAoIBAQCz
1wqkyYU7UeAot5gAVOnbpHuUesN//++ARJlNLYhcR9ySTE+a13nlArsXL+Bl+f74
Ws6q9NV+m019NAEPJfF9corLwaJRma7jNMYjPfHWd0J6ksYDfW79gsUAYULJsdHV
rX9lHLH5wn0gaBnj/EdMw+1wHpniMfe2lXzOlgXX/beLsE2VT9BXBd7T7Bz3aQnn
L14R7DfGrD6dRuJDf6+pPLH2Fsl01Z8kwbf9euP74qzqV366Psd1IXZ/D0seTEUy
Zr5L8iptLcL2K8LcYlSJlZOGd2Uum4BDR8edTuIUclR1RdXBeZ42RkuV2umFlw0t
OKvS3W0sA7beuz5OgJP1AgMBAAGjezB5MAkGA1UdEwQCMAAwLAYJYIZIAYb4QgEN
BB8WHU9wZW5TU0wgR2VuZXJhdGVkIENlcnRpZmljYXRlMB0GA1UdDgQWBBQz2nyh
wxrJBB8LKf8QFwP3dYqQ1zAfBgNVHSMEGDAWgBRg3OBfo66jLWMmDIjGhpv0favF
hTANBgkqhkiG9w0BAQsFAAOCAQEAFVJQu6uCiLlidQNu2QAMyZDeclJaMjJ51olY
RCTVNZZGD8AZvehhWmFLixCBGDwBY3t4mORWbc413ux2N+Whlik7SR8+hU8imGzO
gd1T34XS+Q8dXLx7DZ6g4Rt+LKjNLqnwVtdc0gpNE57AuATPZwTIEn35QJxMPC8j
6S35Dx/28Rie9zLBmuNS+CJY2/MIU0HKB/CL0ALSqZtwLbxlPB7D55BzDX7IBu8E
fKQqrrFFmvxZXLtSW50JbWYNjNjsvJRCTRQGnZv2qtxqZu2sHt5kSJAmsi/OaR0V
5EYFXL2+apMFLMa7O2qlU/COPIVYklPzrsdj5YJWZfMaZ5dofA==
-----END CERTIFICATE-----
